target datalayout = "e-m:e-p270:32:32-p271:32:32-p272:64:64-i64:64-i128:128-f80:128-n8:16:32:64-S128"
target triple = "x86_64-pc-linux-gnu"

%struct.Hacl_Hash_Blake2b_index_s = type { i8, i8, i8 }
%struct.Hacl_Hash_Blake2b_Simd256_block_state_t_s = type { i8, i8, i8, %struct.K____Lib_IntVector_Intrinsics_vec256___Lib_IntVector_Intrinsics_vec256__s }
%struct.K____Lib_IntVector_Intrinsics_vec256___Lib_IntVector_Intrinsics_vec256__s = type { ptr, ptr }
%struct.Hacl_Hash_Blake2b_Simd256_state_t_s = type { %struct.Hacl_Hash_Blake2b_Simd256_block_state_t_s, ptr, i64 }

; Function Attrs: nounwind uwtable
define hidden i24 @python_hashlib_Hacl_Hash_Blake2b_Simd256_info(ptr noundef %0) #5 {
  %2 = alloca %struct.Hacl_Hash_Blake2b_index_s, align 1
  %3 = alloca ptr, align 8
  %4 = alloca %struct.Hacl_Hash_Blake2b_Simd256_block_state_t_s, align 8
  %5 = alloca i8, align 1
  %6 = alloca i8, align 1
  %7 = alloca i8, align 1
  %8 = alloca i24, align 4
  store ptr %0, ptr %3, align 8, !tbaa !59
  call void @llvm.lifetime.start.p0(i64 24, ptr %4) #14
  %9 = load ptr, ptr %3, align 8, !tbaa !59
  %10 = getelementptr inbounds nuw %struct.Hacl_Hash_Blake2b_Simd256_state_t_s, ptr %9, i32 0, i32 0
  call void @llvm.memcpy.p0.p0.i64(ptr align 8 %4, ptr align 8 %10, i64 24, i1 false), !tbaa.struct !55
  call void @llvm.lifetime.start.p0(i64 1, ptr %5) #14
  %11 = getelementptr inbounds nuw %struct.Hacl_Hash_Blake2b_Simd256_block_state_t_s, ptr %4, i32 0, i32 2
  %12 = load i8, ptr %11, align 2, !tbaa !52, !range !36, !noundef !37
  %13 = trunc i8 %12 to i1
  %14 = zext i1 %13 to i8
  store i8 %14, ptr %5, align 1, !tbaa !34
  call void @llvm.lifetime.start.p0(i64 1, ptr %6) #14
  %15 = getelementptr inbounds nuw %struct.Hacl_Hash_Blake2b_Simd256_block_state_t_s, ptr %4, i32 0, i32 1
  %16 = load i8, ptr %15, align 1, !tbaa !51
  store i8 %16, ptr %6, align 1, !tbaa !23
  call void @llvm.lifetime.start.p0(i64 1, ptr %7) #14
  %17 = getelementptr inbounds nuw %struct.Hacl_Hash_Blake2b_Simd256_block_state_t_s, ptr %4, i32 0, i32 0
  %18 = load i8, ptr %17, align 8, !tbaa !48
  store i8 %18, ptr %7, align 1, !tbaa !23
  %19 = getelementptr inbounds nuw %struct.Hacl_Hash_Blake2b_index_s, ptr %2, i32 0, i32 0
  %20 = load i8, ptr %7, align 1, !tbaa !23
  store i8 %20, ptr %19, align 1, !tbaa !41
  %21 = getelementptr inbounds nuw %struct.Hacl_Hash_Blake2b_index_s, ptr %2, i32 0, i32 1
  %22 = load i8, ptr %6, align 1, !tbaa !23
  store i8 %22, ptr %21, align 1, !tbaa !43
  %23 = getelementptr inbounds nuw %struct.Hacl_Hash_Blake2b_index_s, ptr %2, i32 0, i32 2
  %24 = load i8, ptr %5, align 1, !tbaa !34, !range !36, !noundef !37
  %25 = trunc i8 %24 to i1
  %26 = zext i1 %25 to i8
  store i8 %26, ptr %23, align 1, !tbaa !44
  call void @llvm.lifetime.end.p0(i64 1, ptr %7) #14
  call void @llvm.lifetime.end.p0(i64 1, ptr %6) #14
  call void @llvm.lifetime.end.p0(i64 1, ptr %5) #14
  call void @llvm.lifetime.end.p0(i64 24, ptr %4) #14
  call void @llvm.memcpy.p0.p0.i64(ptr align 4 %8, ptr align 1 %2, i64 3, i1 false)
  %27 = load i24, ptr %8, align 4
  ret i24 %27
}